target datalayout = "e-m:e-p270:32:32-p271:32:32-p272:64:64-i64:64-i128:128-f80:128-n8:16:32:64-S128"
target triple = "x86_64-unknown-linux-gnu"

%struct.b2Vec2 = type { float, float }
%struct.b2JointUserData = type { i64 }
%class.b2PulleyJoint = type { %class.b2Joint, %struct.b2Vec2, %struct.b2Vec2, float, float, %struct.b2Vec2, %struct.b2Vec2, float, float, float, i32, i32, %struct.b2Vec2, %struct.b2Vec2, %struct.b2Vec2, %struct.b2Vec2, %struct.b2Vec2, %struct.b2Vec2, float, float, float, float, float }
%class.b2Joint = type { ptr, i32, ptr, ptr, %struct.b2JointEdge, %struct.b2JointEdge, ptr, ptr, i32, i8, i8, %struct.b2JointUserData }
%struct.b2JointEdge = type { ptr, ptr, ptr, ptr }
%struct.b2SolverData = type { %struct.b2TimeStep, ptr, ptr }
%struct.b2TimeStep = type { float, float, float, i32, i32, i8 }
%struct.b2Velocity = type { %struct.b2Vec2, float }

; Function Attrs: mustprogress nounwind uwtable
define linkonce_odr hidden void @_ZN6b2Vec2C2Eff(ptr noundef nonnull align 4 dereferenceable(8) %this, float noundef %xIn, float noundef %yIn) unnamed_addr #2 comdat align 2 {
entry:
  %this.addr = alloca ptr, align 8
  %xIn.addr = alloca float, align 4
  %yIn.addr = alloca float, align 4
  store ptr %this, ptr %this.addr, align 8
  store float %xIn, ptr %xIn.addr, align 4
  store float %yIn, ptr %yIn.addr, align 4
  %this1 = load ptr, ptr %this.addr, align 8
  %x = getelementptr inbounds %struct.b2Vec2, ptr %this1, i32 0, i32 0
  %0 = load float, ptr %xIn.addr, align 4
  store float %0, ptr %x, align 4
  %y = getelementptr inbounds %struct.b2Vec2, ptr %this1, i32 0, i32 1
  %1 = load float, ptr %yIn.addr, align 4
  store float %1, ptr %y, align 4
  ret void
}

; Function Attrs: mustprogress nounwind uwtable
define linkonce_odr hidden noundef float @_Z7b2CrossRK6b2Vec2S1_(ptr noundef nonnull align 4 dereferenceable(8) %a, ptr noundef nonnull align 4 dereferenceable(8) %b) #2 comdat {
entry:
  %a.addr = alloca ptr, align 8
  %b.addr = alloca ptr, align 8
  store ptr %a, ptr %a.addr, align 8
  store ptr %b, ptr %b.addr, align 8
  %0 = load ptr, ptr %a.addr, align 8
  %x = getelementptr inbounds %struct.b2Vec2, ptr %0, i32 0, i32 0
  %1 = load float, ptr %x, align 4
  %2 = load ptr, ptr %b.addr, align 8
  %y = getelementptr inbounds %struct.b2Vec2, ptr %2, i32 0, i32 1
  %3 = load float, ptr %y, align 4
  %4 = load ptr, ptr %a.addr, align 8
  %y1 = getelementptr inbounds %struct.b2Vec2, ptr %4, i32 0, i32 1
  %5 = load float, ptr %y1, align 4
  %6 = load ptr, ptr %b.addr, align 8
  %x2 = getelementptr inbounds %struct.b2Vec2, ptr %6, i32 0, i32 0
  %7 = load float, ptr %x2, align 4
  %mul3 = fmul float %5, %7
  %neg = fneg float %mul3
  %8 = call float @llvm.fmuladd.f32(float %1, float %3, float %neg)
  ret float %8
}

; Function Attrs: mustprogress nounwind uwtable
define linkonce_odr hidden void @_ZN6b2Vec2pLERKS_(ptr noundef nonnull align 4 dereferenceable(8) %this, ptr noundef nonnull align 4 dereferenceable(8) %v) #2 comdat align 2 {
entry:
  %this.addr = alloca ptr, align 8
  %v.addr = alloca ptr, align 8
  store ptr %this, ptr %this.addr, align 8
  store ptr %v, ptr %v.addr, align 8
  %this1 = load ptr, ptr %this.addr, align 8
  %0 = load ptr, ptr %v.addr, align 8
  %x = getelementptr inbounds %struct.b2Vec2, ptr %0, i32 0, i32 0
  %1 = load float, ptr %x, align 4
  %x2 = getelementptr inbounds %struct.b2Vec2, ptr %this1, i32 0, i32 0
  %2 = load float, ptr %x2, align 4
  %add = fadd float %2, %1
  store float %add, ptr %x2, align 4
  %3 = load ptr, ptr %v.addr, align 8
  %y = getelementptr inbounds %struct.b2Vec2, ptr %3, i32 0, i32 1
  %4 = load float, ptr %y, align 4
  %y3 = getelementptr inbounds %struct.b2Vec2, ptr %this1, i32 0, i32 1
  %5 = load float, ptr %y3, align 4
  %add4 = fadd float %5, %4
  store float %add4, ptr %y3, align 4
  ret void
}

; Function Attrs: mustprogress uwtable
define linkonce_odr hidden <2 x float> @_ZmlfRK6b2Vec2(float noundef %s, ptr noundef nonnull align 4 dereferenceable(8) %a) #0 comdat {
entry:
  %retval = alloca %struct.b2Vec2, align 4
  %s.addr = alloca float, align 4
  %a.addr = alloca ptr, align 8
  store float %s, ptr %s.addr, align 4
  store ptr %a, ptr %a.addr, align 8
  %0 = load float, ptr %s.addr, align 4
  %1 = load ptr, ptr %a.addr, align 8
  %x = getelementptr inbounds %struct.b2Vec2, ptr %1, i32 0, i32 0
  %2 = load float, ptr %x, align 4
  %mul = fmul float %0, %2
  %3 = load float, ptr %s.addr, align 4
  %4 = load ptr, ptr %a.addr, align 8
  %y = getelementptr inbounds %struct.b2Vec2, ptr %4, i32 0, i32 1
  %5 = load float, ptr %y, align 4
  %mul1 = fmul float %3, %5
  call void @_ZN6b2Vec2C2Eff(ptr noundef nonnull align 4 dereferenceable(8) %retval, float noundef %mul, float noundef %mul1)
  %6 = load <2 x float>, ptr %retval, align 4
  ret <2 x float> %6
}

; Function Attrs: mustprogress nounwind uwtable
define linkonce_odr hidden noundef float @_Z5b2DotRK6b2Vec2S1_(ptr noundef nonnull align 4 dereferenceable(8) %a, ptr noundef nonnull align 4 dereferenceable(8) %b) #2 comdat {
entry:
  %a.addr = alloca ptr, align 8
  %b.addr = alloca ptr, align 8
  store ptr %a, ptr %a.addr, align 8
  store ptr %b, ptr %b.addr, align 8
  %0 = load ptr, ptr %a.addr, align 8
  %x = getelementptr inbounds %struct.b2Vec2, ptr %0, i32 0, i32 0
  %1 = load float, ptr %x, align 4
  %2 = load ptr, ptr %b.addr, align 8
  %x1 = getelementptr inbounds %struct.b2Vec2, ptr %2, i32 0, i32 0
  %3 = load float, ptr %x1, align 4
  %4 = load ptr, ptr %a.addr, align 8
  %y = getelementptr inbounds %struct.b2Vec2, ptr %4, i32 0, i32 1
  %5 = load float, ptr %y, align 4
  %6 = load ptr, ptr %b.addr, align 8
  %y2 = getelementptr inbounds %struct.b2Vec2, ptr %6, i32 0, i32 1
  %7 = load float, ptr %y2, align 4
  %mul3 = fmul float %5, %7
  %8 = call float @llvm.fmuladd.f32(float %1, float %3, float %mul3)
  ret float %8
}

; Function Attrs: mustprogress uwtable
define linkonce_odr hidden <2 x float> @_ZplRK6b2Vec2S1_(ptr noundef nonnull align 4 dereferenceable(8) %a, ptr noundef nonnull align 4 dereferenceable(8) %b) #0 comdat {
entry:
  %retval = alloca %struct.b2Vec2, align 4
  %a.addr = alloca ptr, align 8
  %b.addr = alloca ptr, align 8
  store ptr %a, ptr %a.addr, align 8
  store ptr %b, ptr %b.addr, align 8
  %0 = load ptr, ptr %a.addr, align 8
  %x = getelementptr inbounds %struct.b2Vec2, ptr %0, i32 0, i32 0
  %1 = load float, ptr %x, align 4
  %2 = load ptr, ptr %b.addr, align 8
  %x1 = getelementptr inbounds %struct.b2Vec2, ptr %2, i32 0, i32 0
  %3 = load float, ptr %x1, align 4
  %add = fadd float %1, %3
  %4 = load ptr, ptr %a.addr, align 8
  %y = getelementptr inbounds %struct.b2Vec2, ptr %4, i32 0, i32 1
  %5 = load float, ptr %y, align 4
  %6 = load ptr, ptr %b.addr, align 8
  %y2 = getelementptr inbounds %struct.b2Vec2, ptr %6, i32 0, i32 1
  %7 = load float, ptr %y2, align 4
  %add3 = fadd float %5, %7
  call void @_ZN6b2Vec2C2Eff(ptr noundef nonnull align 4 dereferenceable(8) %retval, float noundef %add, float noundef %add3)
  %8 = load <2 x float>, ptr %retval, align 4
  ret <2 x float> %8
}

; Function Attrs: mustprogress uwtable
define linkonce_odr hidden <2 x float> @_Z7b2CrossfRK6b2Vec2(float noundef %s, ptr noundef nonnull align 4 dereferenceable(8) %a) #0 comdat {
entry:
  %retval = alloca %struct.b2Vec2, align 4
  %s.addr = alloca float, align 4
  %a.addr = alloca ptr, align 8
  store float %s, ptr %s.addr, align 4
  store ptr %a, ptr %a.addr, align 8
  %0 = load float, ptr %s.addr, align 4
  %fneg = fneg float %0
  %1 = load ptr, ptr %a.addr, align 8
  %y = getelementptr inbounds %struct.b2Vec2, ptr %1, i32 0, i32 1
  %2 = load float, ptr %y, align 4
  %mul = fmul float %fneg, %2
  %3 = load float, ptr %s.addr, align 4
  %4 = load ptr, ptr %a.addr, align 8
  %x = getelementptr inbounds %struct.b2Vec2, ptr %4, i32 0, i32 0
  %5 = load float, ptr %x, align 4
  %mul1 = fmul float %3, %5
  call void @_ZN6b2Vec2C2Eff(ptr noundef nonnull align 4 dereferenceable(8) %retval, float noundef %mul, float noundef %mul1)
  %6 = load <2 x float>, ptr %retval, align 4
  ret <2 x float> %6
}

; Function Attrs: mustprogress uwtable
define void @_ZN13b2PulleyJoint24SolveVelocityConstraintsERK12b2SolverData(ptr noundef nonnull align 8 dereferenceable(256) %this, ptr noundef nonnull align 8 dereferenceable(40) %data) unnamed_addr #0 align 2 {
entry:
  %this.addr = alloca ptr, align 8
  %data.addr = alloca ptr, align 8
  %vA = alloca %struct.b2Vec2, align 4
  %wA = alloca float, align 4
  %vB = alloca %struct.b2Vec2, align 4
  %wB = alloca float, align 4
  %vpA = alloca %struct.b2Vec2, align 4
  %ref.tmp = alloca %struct.b2Vec2, align 4
  %vpB = alloca %struct.b2Vec2, align 4
  %ref.tmp16 = alloca %struct.b2Vec2, align 4
  %Cdot = alloca float, align 4
  %impulse = alloca float, align 4
  %PA = alloca %struct.b2Vec2, align 4
  %PB = alloca %struct.b2Vec2, align 4
  %ref.tmp30 = alloca %struct.b2Vec2, align 4
  %ref.tmp35 = alloca %struct.b2Vec2, align 4
  store ptr %this, ptr %this.addr, align 8
  store ptr %data, ptr %data.addr, align 8
  %this1 = load ptr, ptr %this.addr, align 8
  %0 = load ptr, ptr %data.addr, align 8
  %velocities = getelementptr inbounds %struct.b2SolverData, ptr %0, i32 0, i32 2
  %1 = load ptr, ptr %velocities, align 8
  %m_indexA = getelementptr inbounds %class.b2PulleyJoint, ptr %this1, i32 0, i32 10
  %2 = load i32, ptr %m_indexA, align 4
  %idxprom = sext i32 %2 to i64
  %arrayidx = getelementptr inbounds %struct.b2Velocity, ptr %1, i64 %idxprom
  %v = getelementptr inbounds %struct.b2Velocity, ptr %arrayidx, i32 0, i32 0
  call void @llvm.memcpy.p0.p0.i64(ptr align 4 %vA, ptr align 4 %v, i64 8, i1 false)
  %3 = load ptr, ptr %data.addr, align 8
  %velocities2 = getelementptr inbounds %struct.b2SolverData, ptr %3, i32 0, i32 2
  %4 = load ptr, ptr %velocities2, align 8
  %m_indexA3 = getelementptr inbounds %class.b2PulleyJoint, ptr %this1, i32 0, i32 10
  %5 = load i32, ptr %m_indexA3, align 4
  %idxprom4 = sext i32 %5 to i64
  %arrayidx5 = getelementptr inbounds %struct.b2Velocity, ptr %4, i64 %idxprom4
  %w = getelementptr inbounds %struct.b2Velocity, ptr %arrayidx5, i32 0, i32 1
  %6 = load float, ptr %w, align 4
  store float %6, ptr %wA, align 4
  %7 = load ptr, ptr %data.addr, align 8
  %velocities6 = getelementptr inbounds %struct.b2SolverData, ptr %7, i32 0, i32 2
  %8 = load ptr, ptr %velocities6, align 8
  %m_indexB = getelementptr inbounds %class.b2PulleyJoint, ptr %this1, i32 0, i32 11
  %9 = load i32, ptr %m_indexB, align 8
  %idxprom7 = sext i32 %9 to i64
  %arrayidx8 = getelementptr inbounds %struct.b2Velocity, ptr %8, i64 %idxprom7
  %v9 = getelementptr inbounds %struct.b2Velocity, ptr %arrayidx8, i32 0, i32 0
  call void @llvm.memcpy.p0.p0.i64(ptr align 4 %vB, ptr align 4 %v9, i64 8, i1 false)
  %10 = load ptr, ptr %data.addr, align 8
  %velocities10 = getelementptr inbounds %struct.b2SolverData, ptr %10, i32 0, i32 2
  %11 = load ptr, ptr %velocities10, align 8
  %m_indexB11 = getelementptr inbounds %class.b2PulleyJoint, ptr %this1, i32 0, i32 11
  %12 = load i32, ptr %m_indexB11, align 8
  %idxprom12 = sext i32 %12 to i64
  %arrayidx13 = getelementptr inbounds %struct.b2Velocity, ptr %11, i64 %idxprom12
  %w14 = getelementptr inbounds %struct.b2Velocity, ptr %arrayidx13, i32 0, i32 1
  %13 = load float, ptr %w14, align 4
  store float %13, ptr %wB, align 4
  %14 = load float, ptr %wA, align 4
  %m_rA = getelementptr inbounds %class.b2PulleyJoint, ptr %this1, i32 0, i32 14
  %call = call <2 x float> @_Z7b2CrossfRK6b2Vec2(float noundef %14, ptr noundef nonnull align 4 dereferenceable(8) %m_rA)
  store <2 x float> %call, ptr %ref.tmp, align 4
  %call15 = call <2 x float> @_ZplRK6b2Vec2S1_(ptr noundef nonnull align 4 dereferenceable(8) %vA, ptr noundef nonnull align 4 dereferenceable(8) %ref.tmp)
  store <2 x float> %call15, ptr %vpA, align 4
  %15 = load float, ptr %wB, align 4
  %m_rB = getelementptr inbounds %class.b2PulleyJoint, ptr %this1, i32 0, i32 15
  %call17 = call <2 x float> @_Z7b2CrossfRK6b2Vec2(float noundef %15, ptr noundef nonnull align 4 dereferenceable(8) %m_rB)
  store <2 x float> %call17, ptr %ref.tmp16, align 4
  %call18 = call <2 x float> @_ZplRK6b2Vec2S1_(ptr noundef nonnull align 4 dereferenceable(8) %vB, ptr noundef nonnull align 4 dereferenceable(8) %ref.tmp16)
  store <2 x float> %call18, ptr %vpB, align 4
  %m_uA = getelementptr inbounds %class.b2PulleyJoint, ptr %this1, i32 0, i32 12
  %call19 = call noundef float @_Z5b2DotRK6b2Vec2S1_(ptr noundef nonnull align 4 dereferenceable(8) %m_uA, ptr noundef nonnull align 4 dereferenceable(8) %vpA)
  %fneg = fneg float %call19
  %m_ratio = getelementptr inbounds %class.b2PulleyJoint, ptr %this1, i32 0, i32 8
  %16 = load float, ptr %m_ratio, align 4
  %m_uB = getelementptr inbounds %class.b2PulleyJoint, ptr %this1, i32 0, i32 13
  %call20 = call noundef float @_Z5b2DotRK6b2Vec2S1_(ptr noundef nonnull align 4 dereferenceable(8) %m_uB, ptr noundef nonnull align 4 dereferenceable(8) %vpB)
  %neg = fneg float %16
  %17 = call float @llvm.fmuladd.f32(float %neg, float %call20, float %fneg)
  store float %17, ptr %Cdot, align 4
  %m_mass = getelementptr inbounds %class.b2PulleyJoint, ptr %this1, i32 0, i32 22
  %18 = load float, ptr %m_mass, align 4
  %fneg21 = fneg float %18
  %19 = load float, ptr %Cdot, align 4
  %mul = fmul float %fneg21, %19
  store float %mul, ptr %impulse, align 4
  %20 = load float, ptr %impulse, align 4
  %m_impulse = getelementptr inbounds %class.b2PulleyJoint, ptr %this1, i32 0, i32 9
  %21 = load float, ptr %m_impulse, align 8
  %add = fadd float %21, %20
  store float %add, ptr %m_impulse, align 8
  %22 = load float, ptr %impulse, align 4
  %fneg22 = fneg float %22
  %m_uA23 = getelementptr inbounds %class.b2PulleyJoint, ptr %this1, i32 0, i32 12
  %call24 = call <2 x float> @_ZmlfRK6b2Vec2(float noundef %fneg22, ptr noundef nonnull align 4 dereferenceable(8) %m_uA23)
  store <2 x float> %call24, ptr %PA, align 4
  %m_ratio25 = getelementptr inbounds %class.b2PulleyJoint, ptr %this1, i32 0, i32 8
  %23 = load float, ptr %m_ratio25, align 4
  %fneg26 = fneg float %23
  %24 = load float, ptr %impulse, align 4
  %mul27 = fmul float %fneg26, %24
  %m_uB28 = getelementptr inbounds %class.b2PulleyJoint, ptr %this1, i32 0, i32 13
  %call29 = call <2 x float> @_ZmlfRK6b2Vec2(float noundef %mul27, ptr noundef nonnull align 4 dereferenceable(8) %m_uB28)
  store <2 x float> %call29, ptr %PB, align 4
  %m_invMassA = getelementptr inbounds %class.b2PulleyJoint, ptr %this1, i32 0, i32 18
  %25 = load float, ptr %m_invMassA, align 4
  %call31 = call <2 x float> @_ZmlfRK6b2Vec2(float noundef %25, ptr noundef nonnull align 4 dereferenceable(8) %PA)
  store <2 x float> %call31, ptr %ref.tmp30, align 4
  call void @_ZN6b2Vec2pLERKS_(ptr noundef nonnull align 4 dereferenceable(8) %vA, ptr noundef nonnull align 4 dereferenceable(8) %ref.tmp30)
  %m_invIA = getelementptr inbounds %class.b2PulleyJoint, ptr %this1, i32 0, i32 20
  %26 = load float, ptr %m_invIA, align 4
  %m_rA32 = getelementptr inbounds %class.b2PulleyJoint, ptr %this1, i32 0, i32 14
  %call33 = call noundef float @_Z7b2CrossRK6b2Vec2S1_(ptr noundef nonnull align 4 dereferenceable(8) %m_rA32, ptr noundef nonnull align 4 dereferenceable(8) %PA)
  %27 = load float, ptr %wA, align 4
  %28 = call float @llvm.fmuladd.f32(float %26, float %call33, float %27)
  store float %28, ptr %wA, align 4
  %m_invMassB = getelementptr inbounds %class.b2PulleyJoint, ptr %this1, i32 0, i32 19
  %29 = load float, ptr %m_invMassB, align 8
  %call36 = call <2 x float> @_ZmlfRK6b2Vec2(float noundef %29, ptr noundef nonnull align 4 dereferenceable(8) %PB)
  store <2 x float> %call36, ptr %ref.tmp35, align 4
  call void @_ZN6b2Vec2pLERKS_(ptr noundef nonnull align 4 dereferenceable(8) %vB, ptr noundef nonnull align 4 dereferenceable(8) %ref.tmp35)
  %m_invIB = getelementptr inbounds %class.b2PulleyJoint, ptr %this1, i32 0, i32 21
  %30 = load float, ptr %m_invIB, align 8
  %m_rB37 = getelementptr inbounds %class.b2PulleyJoint, ptr %this1, i32 0, i32 15
  %call38 = call noundef float @_Z7b2CrossRK6b2Vec2S1_(ptr noundef nonnull align 4 dereferenceable(8) %m_rB37, ptr noundef nonnull align 4 dereferenceable(8) %PB)
  %31 = load float, ptr %wB, align 4
  %32 = call float @llvm.fmuladd.f32(float %30, float %call38, float %31)
  store float %32, ptr %wB, align 4
  %33 = load ptr, ptr %data.addr, align 8
  %velocities40 = getelementptr inbounds %struct.b2SolverData, ptr %33, i32 0, i32 2
  %34 = load ptr, ptr %velocities40, align 8
  %m_indexA41 = getelementptr inbounds %class.b2PulleyJoint, ptr %this1, i32 0, i32 10
  %35 = load i32, ptr %m_indexA41, align 4
  %idxprom42 = sext i32 %35 to i64
  %arrayidx43 = getelementptr inbounds %struct.b2Velocity, ptr %34, i64 %idxprom42
  %v44 = getelementptr inbounds %struct.b2Velocity, ptr %arrayidx43, i32 0, i32 0
  call void @llvm.memcpy.p0.p0.i64(ptr align 4 %v44, ptr align 4 %vA, i64 8, i1 false)
  %36 = load float, ptr %wA, align 4
  %37 = load ptr, ptr %data.addr, align 8
  %velocities45 = getelementptr inbounds %struct.b2SolverData, ptr %37, i32 0, i32 2
  %38 = load ptr, ptr %velocities45, align 8
  %m_indexA46 = getelementptr inbounds %class.b2PulleyJoint, ptr %this1, i32 0, i32 10
  %39 = load i32, ptr %m_indexA46, align 4
  %idxprom47 = sext i32 %39 to i64
  %arrayidx48 = getelementptr inbounds %struct.b2Velocity, ptr %38, i64 %idxprom47
  %w49 = getelementptr inbounds %struct.b2Velocity, ptr %arrayidx48, i32 0, i32 1
  store float %36, ptr %w49, align 4
  %40 = load ptr, ptr %data.addr, align 8
  %velocities50 = getelementptr inbounds %struct.b2SolverData, ptr %40, i32 0, i32 2
  %41 = load ptr, ptr %velocities50, align 8
  %m_indexB51 = getelementptr inbounds %class.b2PulleyJoint, ptr %this1, i32 0, i32 11
  %42 = load i32, ptr %m_indexB51, align 8
  %idxprom52 = sext i32 %42 to i64
  %arrayidx53 = getelementptr inbounds %struct.b2Velocity, ptr %41, i64 %idxprom52
  %v54 = getelementptr inbounds %struct.b2Velocity, ptr %arrayidx53, i32 0, i32 0
  call void @llvm.memcpy.p0.p0.i64(ptr align 4 %v54, ptr align 4 %vB, i64 8, i1 false)
  %43 = load float, ptr %wB, align 4
  %44 = load ptr, ptr %data.addr, align 8
  %velocities55 = getelementptr inbounds %struct.b2SolverData, ptr %44, i32 0, i32 2
  %45 = load ptr, ptr %velocities55, align 8
  %m_indexB56 = getelementptr inbounds %class.b2PulleyJoint, ptr %this1, i32 0, i32 11
  %46 = load i32, ptr %m_indexB56, align 8
  %idxprom57 = sext i32 %46 to i64
  %arrayidx58 = getelementptr inbounds %struct.b2Velocity, ptr %45, i64 %idxprom57
  %w59 = getelementptr inbounds %struct.b2Velocity, ptr %arrayidx58, i32 0, i32 1
  store float %43, ptr %w59, align 4
  ret void
}