; Function Attrs: mustprogress nofree norecurse nosync nounwind willreturn memory(readwrite, inaccessiblemem: none) uwtable
define void @_ZN13b2PulleyJoint24SolveVelocityConstraintsERK12b2SolverData(ptr nocapture noundef nonnull align 8 dereferenceable(256) %this, ptr nocapture noundef nonnull readonly align 8 dereferenceable(40) %data) unnamed_addr #5 align 2 {
entry:
  %velocities = getelementptr inbounds i8, ptr %data, i64 32
  %0 = load ptr, ptr %velocities, align 8
  %m_indexA = getelementptr inbounds i8, ptr %this, i64 180
  %1 = load i32, ptr %m_indexA, align 4
  %idxprom = sext i32 %1 to i64
  %arrayidx = getelementptr inbounds %struct.b2Velocity, ptr %0, i64 %idxprom
  %w = getelementptr inbounds %struct.b2Velocity, ptr %0, i64 %idxprom, i32 1
  %2 = load float, ptr %w, align 4
  %m_indexB = getelementptr inbounds i8, ptr %this, i64 184
  %3 = load i32, ptr %m_indexB, align 8
  %idxprom7 = sext i32 %3 to i64
  %arrayidx8 = getelementptr inbounds %struct.b2Velocity, ptr %0, i64 %idxprom7
  %w14 = getelementptr inbounds %struct.b2Velocity, ptr %0, i64 %idxprom7, i32 1
  %4 = load float, ptr %w14, align 4
  %m_rA = getelementptr inbounds i8, ptr %this, i64 204
  %y.i = getelementptr inbounds i8, ptr %this, i64 208
  %5 = load float, ptr %y.i, align 8
  %6 = load float, ptr %m_rA, align 4
  %mul1.i = fmul float %2, %6
  %7 = fmul float %2, %5
  %m_rB = getelementptr inbounds i8, ptr %this, i64 212
  %y.i18 = getelementptr inbounds i8, ptr %this, i64 216
  %8 = load float, ptr %y.i18, align 8
  %9 = load float, ptr %m_rB, align 4
  %mul1.i20 = fmul float %4, %9
  %10 = fmul float %4, %8
  %m_uA = getelementptr inbounds i8, ptr %this, i64 188
  %m_ratio = getelementptr inbounds i8, ptr %this, i64 172
  %11 = load float, ptr %m_ratio, align 4
  %m_uB = getelementptr inbounds i8, ptr %this, i64 196
  %neg = fneg float %11
  %m_mass = getelementptr inbounds i8, ptr %this, i64 252
  %12 = load float, ptr %m_mass, align 4
  %fneg21 = fneg float %12
  %m_impulse = getelementptr inbounds i8, ptr %this, i64 176
  %13 = load float, ptr %m_impulse, align 8
  %m_invMassA = getelementptr inbounds i8, ptr %this, i64 236
  %14 = load <4 x float>, ptr %m_invMassA, align 4
  %m_invIA = getelementptr inbounds i8, ptr %this, i64 244
  %15 = load float, ptr %m_invIA, align 4
  %16 = fneg float %5
  %m_invMassB = getelementptr inbounds i8, ptr %this, i64 240
  %17 = load <4 x float>, ptr %m_invMassB, align 8
  %m_invIB = getelementptr inbounds i8, ptr %this, i64 248
  %18 = load float, ptr %m_invIB, align 8
  %19 = fneg float %8
  %20 = load <2 x float>, ptr %arrayidx, align 4
  %21 = extractelement <2 x float> %20, i64 0
  %add.i = fsub float %21, %7
  %22 = extractelement <2 x float> %20, i64 1
  %add3.i = fadd float %22, %mul1.i
  %23 = load <2 x float>, ptr %m_uA, align 4
  %24 = extractelement <2 x float> %23, i64 1
  %mul3.i = fmul float %add3.i, %24
  %25 = extractelement <2 x float> %23, i64 0
  %26 = tail call noundef float @llvm.fmuladd.f32(float %25, float %add.i, float %mul3.i)
  %fneg = fneg float %26
  %27 = shufflevector <4 x float> %14, <4 x float> poison, <2 x i32> zeroinitializer
  %28 = load <2 x float>, ptr %arrayidx8, align 4
  %29 = extractelement <2 x float> %28, i64 0
  %add.i23 = fsub float %29, %10
  %30 = extractelement <2 x float> %28, i64 1
  %add3.i26 = fadd float %30, %mul1.i20
  %31 = load <2 x float>, ptr %m_uB, align 4
  %32 = extractelement <2 x float> %31, i64 1
  %mul3.i33 = fmul float %add3.i26, %32
  %33 = extractelement <2 x float> %31, i64 0
  %34 = tail call noundef float @llvm.fmuladd.f32(float %33, float %add.i23, float %mul3.i33)
  %35 = tail call float @llvm.fmuladd.f32(float %neg, float %34, float %fneg)
  %mul = fmul float %35, %fneg21
  %add = fadd float %13, %mul
  store float %add, ptr %m_impulse, align 8
  %fneg22 = fneg float %mul
  %36 = insertelement <2 x float> poison, float %fneg22, i64 0
  %37 = shufflevector <2 x float> %36, <2 x float> poison, <2 x i32> zeroinitializer
  %38 = fmul <2 x float> %23, %37
  %mul27 = fmul float %mul, %neg
  %39 = insertelement <2 x float> poison, float %mul27, i64 0
  %40 = shufflevector <2 x float> %39, <2 x float> poison, <2 x i32> zeroinitializer
  %41 = fmul <2 x float> %31, %40
  %42 = fmul <2 x float> %27, %38
  %43 = fadd <2 x float> %20, %42
  %44 = extractelement <2 x float> %38, i64 0
  %neg.i = fmul float %44, %16
  %45 = extractelement <2 x float> %38, i64 1
  %46 = tail call noundef float @llvm.fmuladd.f32(float %6, float %45, float %neg.i)
  %47 = tail call float @llvm.fmuladd.f32(float %15, float %46, float %2)
  %48 = shufflevector <4 x float> %17, <4 x float> poison, <2 x i32> zeroinitializer
  %49 = fmul <2 x float> %41, %48
  %50 = fadd <2 x float> %28, %49
  %51 = extractelement <2 x float> %41, i64 0
  %neg.i63 = fmul float %51, %19
  %52 = extractelement <2 x float> %41, i64 1
  %53 = tail call noundef float @llvm.fmuladd.f32(float %9, float %52, float %neg.i63)
  %54 = tail call float @llvm.fmuladd.f32(float %18, float %53, float %4)
  %55 = load ptr, ptr %velocities, align 8
  %arrayidx43 = getelementptr inbounds %struct.b2Velocity, ptr %55, i64 %idxprom
  store <2 x float> %43, ptr %arrayidx43, align 4
  %56 = load ptr, ptr %velocities, align 8
  %57 = load i32, ptr %m_indexA, align 4
  %idxprom47 = sext i32 %57 to i64
  %w49 = getelementptr inbounds %struct.b2Velocity, ptr %56, i64 %idxprom47, i32 1
  store float %47, ptr %w49, align 4
  %58 = load ptr, ptr %velocities, align 8
  %59 = load i32, ptr %m_indexB, align 8
  %idxprom52 = sext i32 %59 to i64
  %arrayidx53 = getelementptr inbounds %struct.b2Velocity, ptr %58, i64 %idxprom52
  store <2 x float> %50, ptr %arrayidx53, align 4
  %60 = load ptr, ptr %velocities, align 8
  %61 = load i32, ptr %m_indexB, align 8
  %idxprom57 = sext i32 %61 to i64
  %w59 = getelementptr inbounds %struct.b2Velocity, ptr %60, i64 %idxprom57, i32 1
  store float %54, ptr %w59, align 4
  ret void
}